#include <math.h>
#include <stdio.h>
#include <stdlib.h>
#include <string.h>

int main()
{
	int n,i,j;
	char a[1000][257];
	scanf("%d",&n);
	for(i=0;i<n;i++)
	{
		scanf("%s",&a[i]);
	}
	for(i=0;i<n;i++)
	{
		for(j=0;a[i][j]!='\0';j++)
		{
			switch(a[i][j])
			{
			case'A':
				a[i][j]='T';
				break;
			case'G':
				a[i][j]='C';
				break;
			case'C':
				a[i][j]='G';
				break;
			case'T':
				a[i][j]='A';
				break;
			}
		}
	}
	for(i=0;i<n;i++)
	{
		printf("%s",a[i]);
		if(i!=n-1)
		{
			printf("\n");
		}
	}

	return 0;
}
